; Function Attrs: nofree nosync nounwind memory(argmem: readwrite) uwtable
define void @stbtt__tesselate_cubic(ptr noundef captures(address_is_null) %0, ptr noundef captures(none) %1, float noundef %2, float noundef %3, float noundef %4, float noundef %5, float noundef %6, float noundef %7, float noundef %8, float noundef %9, float noundef %10, i32 noundef %11) local_unnamed_addr #23 {
  %smax = tail call i32 @llvm.smax.i32(i32 %11, i32 17)
  %exitcond107 = icmp sgt i32 %11, 16
  br i1 %exitcond107, label %.loopexit, label %.lr.ph

.lr.ph:                                           ; preds = %12, %tailrecurse
  %.tr106114 = phi i32 [ %63, %tailrecurse ], [ %11, %12 ]
  %.tr102113 = phi float [ %50, %tailrecurse ], [ %7, %12 ]
  %.tr101112 = phi float [ %48, %tailrecurse ], [ %6, %12 ]
  %.tr100111 = phi float [ %58, %tailrecurse ], [ %5, %12 ]
  %.tr99110 = phi float [ %56, %tailrecurse ], [ %4, %12 ]
  %.tr98109 = phi float [ %62, %tailrecurse ], [ %3, %12 ]
  %.tr97108 = phi float [ %60, %tailrecurse ], [ %2, %12 ]
  %13 = fsub float %8, %.tr97108
  %14 = fsub float %9, %.tr98109
  %15 = fmul float %14, %14
  %16 = tail call float @llvm.fmuladd.f32(float %13, float %13, float %15)
  %sqrt = tail call float @llvm.sqrt.f32(float %16)
  %17 = fsub float %8, %.tr101112
  %18 = fsub float %9, %.tr102113
  %19 = fmul float %18, %18
  %20 = tail call float @llvm.fmuladd.f32(float %17, float %17, float %19)
  %21 = fpext float %20 to double
  %sqrt93 = tail call double @llvm.sqrt.f64(double %21)
  %22 = fsub float %.tr101112, %.tr99110
  %23 = fsub float %.tr102113, %.tr100111
  %24 = fmul float %23, %23
  %25 = tail call float @llvm.fmuladd.f32(float %22, float %22, float %24)
  %26 = fpext float %25 to double
  %sqrt94 = tail call double @llvm.sqrt.f64(double %26)
  %27 = fsub float %.tr99110, %.tr97108
  %28 = fsub float %.tr100111, %.tr98109
  %29 = fmul float %28, %28
  %30 = tail call float @llvm.fmuladd.f32(float %27, float %27, float %29)
  %31 = fpext float %30 to double
  %sqrt95 = tail call double @llvm.sqrt.f64(double %31)
  %32 = fadd double %sqrt95, %sqrt94
  %33 = fadd double %sqrt93, %32
  %34 = fptrunc double %33 to float
  %35 = fneg float %sqrt
  %36 = fmul float %sqrt, %35
  %37 = tail call float @llvm.fmuladd.f32(float %34, float %34, float %36)
  %38 = fcmp ogt float %37, %10
  br i1 %38, label %tailrecurse, label %64

tailrecurse:                                      ; preds = %.lr.ph
  %39 = fadd float %.tr97108, %.tr99110
  %40 = fmul float %39, 5.000000e-01
  %41 = fadd float %.tr98109, %.tr100111
  %42 = fmul float %41, 5.000000e-01
  %43 = fadd float %.tr99110, %.tr101112
  %44 = fmul float %43, 5.000000e-01
  %45 = fadd float %.tr100111, %.tr102113
  %46 = fmul float %45, 5.000000e-01
  %47 = fadd float %8, %.tr101112
  %48 = fmul float %47, 5.000000e-01
  %49 = fadd float %9, %.tr102113
  %50 = fmul float %49, 5.000000e-01
  %51 = fadd float %40, %44
  %52 = fmul float %51, 5.000000e-01
  %53 = fadd float %42, %46
  %54 = fmul float %53, 5.000000e-01
  %55 = fadd float %44, %48
  %56 = fmul float %55, 5.000000e-01
  %57 = fadd float %46, %50
  %58 = fmul float %57, 5.000000e-01
  %59 = fadd float %52, %56
  %60 = fmul float %59, 5.000000e-01
  %61 = fadd float %54, %58
  %62 = fmul float %61, 5.000000e-01
  %63 = add i32 %.tr106114, 1
  tail call void @stbtt__tesselate_cubic(ptr noundef %0, ptr noundef %1, float noundef %.tr97108, float noundef %.tr98109, float noundef %40, float noundef %42, float noundef %52, float noundef %54, float noundef %60, float noundef %62, float noundef %10, i32 noundef %63)
  %exitcond = icmp eq i32 %63, %smax
  br i1 %exitcond, label %.loopexit, label %.lr.ph

64:                                               ; preds = %.lr.ph
  %65 = load i32, ptr %1, align 4, !tbaa !17
  %.not.i = icmp eq ptr %0, null
  br i1 %.not.i, label %stbtt__add_point.exit, label %66

66:                                               ; preds = %64
  %67 = sext i32 %65 to i64
  %68 = getelementptr inbounds %struct.stbtt__point, ptr %0, i64 %67
  store float %8, ptr %68, align 4, !tbaa !137
  %69 = getelementptr inbounds nuw i8, ptr %68, i64 4
  store float %9, ptr %69, align 4, !tbaa !135
  br label %stbtt__add_point.exit

stbtt__add_point.exit:                            ; preds = %64, %66
  %70 = add nsw i32 %65, 1
  store i32 %70, ptr %1, align 4, !tbaa !17
  br label %.loopexit

.loopexit:                                        ; preds = %tailrecurse, %12, %stbtt__add_point.exit
  ret void
}